target datalayout = "e-m:e-p270:32:32-p271:32:32-p272:64:64-i64:64-i128:128-f80:128-n8:16:32:64-S128"
target triple = "x86_64-pc-linux-gnu"

%struct._generic_SUNMatrix_Ops = type { ptr, ptr, ptr, ptr, ptr, ptr, ptr, ptr, ptr, ptr }
%struct._generic_SUNMatrix = type { ptr, ptr, ptr }

; Function Attrs: nounwind uwtable
define ptr @SUNMatNewEmpty(ptr noundef %0) #0 {
  %2 = alloca ptr, align 8
  %3 = alloca ptr, align 8
  %4 = alloca ptr, align 8
  %5 = alloca ptr, align 8
  %6 = alloca ptr, align 8
  store ptr %0, ptr %3, align 8, !tbaa !3
  %7 = load ptr, ptr %3, align 8, !tbaa !3
  %8 = icmp eq ptr %7, null
  br i1 %8, label %9, label %10

9:                                                ; preds = %1
  store ptr null, ptr %2, align 8
  br label %43

10:                                               ; preds = %1
  call void @llvm.lifetime.start.p0(i64 8, ptr %4) #4
  %11 = load ptr, ptr %3, align 8, !tbaa !3
  store ptr %11, ptr %4, align 8, !tbaa !3
  call void @llvm.lifetime.start.p0(i64 8, ptr %5) #4
  call void @llvm.lifetime.start.p0(i64 8, ptr %6) #4
  store ptr null, ptr %5, align 8, !tbaa !8
  %12 = call noalias ptr @malloc(i64 noundef 24) #5
  store ptr %12, ptr %5, align 8, !tbaa !8
  store ptr null, ptr %6, align 8, !tbaa !10
  %13 = call noalias ptr @malloc(i64 noundef 80) #5
  store ptr %13, ptr %6, align 8, !tbaa !10
  %14 = load ptr, ptr %6, align 8, !tbaa !10
  %15 = getelementptr inbounds nuw %struct._generic_SUNMatrix_Ops, ptr %14, i32 0, i32 0
  store ptr null, ptr %15, align 8, !tbaa !12
  %16 = load ptr, ptr %6, align 8, !tbaa !10
  %17 = getelementptr inbounds nuw %struct._generic_SUNMatrix_Ops, ptr %16, i32 0, i32 1
  store ptr null, ptr %17, align 8, !tbaa !14
  %18 = load ptr, ptr %6, align 8, !tbaa !10
  %19 = getelementptr inbounds nuw %struct._generic_SUNMatrix_Ops, ptr %18, i32 0, i32 2
  store ptr null, ptr %19, align 8, !tbaa !15
  %20 = load ptr, ptr %6, align 8, !tbaa !10
  %21 = getelementptr inbounds nuw %struct._generic_SUNMatrix_Ops, ptr %20, i32 0, i32 3
  store ptr null, ptr %21, align 8, !tbaa !16
  %22 = load ptr, ptr %6, align 8, !tbaa !10
  %23 = getelementptr inbounds nuw %struct._generic_SUNMatrix_Ops, ptr %22, i32 0, i32 4
  store ptr null, ptr %23, align 8, !tbaa !17
  %24 = load ptr, ptr %6, align 8, !tbaa !10
  %25 = getelementptr inbounds nuw %struct._generic_SUNMatrix_Ops, ptr %24, i32 0, i32 5
  store ptr null, ptr %25, align 8, !tbaa !18
  %26 = load ptr, ptr %6, align 8, !tbaa !10
  %27 = getelementptr inbounds nuw %struct._generic_SUNMatrix_Ops, ptr %26, i32 0, i32 6
  store ptr null, ptr %27, align 8, !tbaa !19
  %28 = load ptr, ptr %6, align 8, !tbaa !10
  %29 = getelementptr inbounds nuw %struct._generic_SUNMatrix_Ops, ptr %28, i32 0, i32 7
  store ptr null, ptr %29, align 8, !tbaa !20
  %30 = load ptr, ptr %6, align 8, !tbaa !10
  %31 = getelementptr inbounds nuw %struct._generic_SUNMatrix_Ops, ptr %30, i32 0, i32 8
  store ptr null, ptr %31, align 8, !tbaa !21
  %32 = load ptr, ptr %6, align 8, !tbaa !10
  %33 = getelementptr inbounds nuw %struct._generic_SUNMatrix_Ops, ptr %32, i32 0, i32 9
  store ptr null, ptr %33, align 8, !tbaa !22
  %34 = load ptr, ptr %6, align 8, !tbaa !10
  %35 = load ptr, ptr %5, align 8, !tbaa !8
  %36 = getelementptr inbounds nuw %struct._generic_SUNMatrix, ptr %35, i32 0, i32 1
  store ptr %34, ptr %36, align 8, !tbaa !23
  %37 = load ptr, ptr %5, align 8, !tbaa !8
  %38 = getelementptr inbounds nuw %struct._generic_SUNMatrix, ptr %37, i32 0, i32 0
  store ptr null, ptr %38, align 8, !tbaa !25
  %39 = load ptr, ptr %3, align 8, !tbaa !3
  %40 = load ptr, ptr %5, align 8, !tbaa !8
  %41 = getelementptr inbounds nuw %struct._generic_SUNMatrix, ptr %40, i32 0, i32 2
  store ptr %39, ptr %41, align 8, !tbaa !26
  %42 = load ptr, ptr %5, align 8, !tbaa !8
  store ptr %42, ptr %2, align 8
  call void @llvm.lifetime.end.p0(i64 8, ptr %6) #4
  call void @llvm.lifetime.end.p0(i64 8, ptr %5) #4
  call void @llvm.lifetime.end.p0(i64 8, ptr %4) #4
  br label %43

43:                                               ; preds = %10, %9
  %44 = load ptr, ptr %2, align 8
  ret ptr %44
}