; Function Attrs: mustprogress nofree nounwind willreturn memory(write, argmem: none, inaccessiblemem: readwrite) uwtable
define noalias noundef ptr @SUNMatNewEmpty(ptr noundef %0) local_unnamed_addr #0 {
  %2 = icmp eq ptr %0, null
  br i1 %2, label %7, label %3

3:                                                ; preds = %1
  %4 = tail call noalias dereferenceable_or_null(24) ptr @malloc(i64 noundef 24) #7
  %calloc = tail call dereferenceable_or_null(80) ptr @calloc(i64 1, i64 80)
  %5 = getelementptr inbounds nuw i8, ptr %4, i64 8
  store ptr %calloc, ptr %5, align 8, !tbaa !3
  store ptr null, ptr %4, align 8, !tbaa !10
  %6 = getelementptr inbounds nuw i8, ptr %4, i64 16
  store ptr %0, ptr %6, align 8, !tbaa !11
  br label %7

7:                                                ; preds = %1, %3
  %.0 = phi ptr [ %4, %3 ], [ null, %1 ]
  ret ptr %.0
}